; Function Attrs: nounwind uwtable
define hidden range(i32 -1, 1) i32 @_Py_ext_module_loader_info_init_for_builtin(ptr noundef writeonly captures(none) %0, ptr noundef %1) local_unnamed_addr #0 {
  %3 = tail call ptr @PyUnicode_AsEncodedString(ptr noundef %1, ptr noundef nonnull @.str.2, ptr noundef null) #6
  %4 = icmp eq ptr %3, null
  br i1 %4, label %10, label %5

5:                                                ; preds = %2
  %6 = load i32, ptr %1, align 8, !tbaa !9
  %7 = icmp slt i32 %6, 0
  br i1 %7, label %_Py_NewRef.exit, label %8

8:                                                ; preds = %5
  %9 = add nuw i32 %6, 1
  store i32 %9, ptr %1, align 8, !tbaa !9
  br label %_Py_NewRef.exit

_Py_NewRef.exit:                                  ; preds = %5, %8
  %.sroa.3.0..sroa_idx = getelementptr inbounds nuw i8, ptr %0, i64 16
  tail call void @llvm.memset.p0.i64(ptr noundef nonnull align 8 dereferenceable(16) %0, i8 0, i64 16, i1 false)
  store ptr %1, ptr %.sroa.3.0..sroa_idx, align 8, !tbaa !4
  %.sroa.4.0..sroa_idx = getelementptr inbounds nuw i8, ptr %0, i64 24
  store ptr %3, ptr %.sroa.4.0..sroa_idx, align 8, !tbaa !4
  %.sroa.5.0..sroa_idx = getelementptr inbounds nuw i8, ptr %0, i64 32
  store ptr %1, ptr %.sroa.5.0..sroa_idx, align 8, !tbaa !4
  %.sroa.6.0..sroa_idx = getelementptr inbounds nuw i8, ptr %0, i64 40
  store i32 2, ptr %.sroa.6.0..sroa_idx, align 8, !tbaa !33
  %.sroa.7.0..sroa_idx = getelementptr inbounds nuw i8, ptr %0, i64 44
  store i32 0, ptr %.sroa.7.0..sroa_idx, align 4
  %.sroa.8.0..sroa_idx = getelementptr inbounds nuw i8, ptr %0, i64 48
  store ptr @.str.3, ptr %.sroa.8.0..sroa_idx, align 8, !tbaa !26
  %.sroa.9.0..sroa_idx = getelementptr inbounds nuw i8, ptr %0, i64 56
  store ptr null, ptr %.sroa.9.0..sroa_idx, align 8, !tbaa !26
  br label %10

10:                                               ; preds = %2, %_Py_NewRef.exit
  %.0 = phi i32 [ 0, %_Py_NewRef.exit ], [ -1, %2 ]
  ret i32 %.0
}